target datalayout = "e-m:e-p270:32:32-p271:32:32-p272:64:64-i64:64-i128:128-f80:128-n8:16:32:64-S128"
target triple = "x86_64-unknown-linux-gnu"

%"class.icu_75::UObject" = type { ptr }
%"class.icu_75::FixedDecimal" = type { %"class.icu_75::IFixedDecimal", %"class.icu_75::UObject", double, i32, i64, i64, i64, i32, i8, i8, i8, i8 }
%"class.icu_75::IFixedDecimal" = type { ptr }

; Function Attrs: mustprogress nounwind uwtable
define noundef zeroext i1 @_ZNK6icu_7512FixedDecimaleqERKS0_(ptr noundef nonnull align 8 dereferenceable(64) %this, ptr noundef nonnull align 8 dereferenceable(64) %other) #0 align 2 {
entry:
  %this.addr = alloca ptr, align 8
  %other.addr = alloca ptr, align 8
  store ptr %this, ptr %this.addr, align 8
  store ptr %other, ptr %other.addr, align 8
  %this1 = load ptr, ptr %this.addr, align 8
  %source = getelementptr inbounds %"class.icu_75::FixedDecimal", ptr %this1, i32 0, i32 2
  %0 = load double, ptr %source, align 8
  %1 = load ptr, ptr %other.addr, align 8
  %source2 = getelementptr inbounds %"class.icu_75::FixedDecimal", ptr %1, i32 0, i32 2
  %2 = load double, ptr %source2, align 8
  %cmp = fcmp oeq double %0, %2
  br i1 %cmp, label %land.lhs.true, label %land.end

land.lhs.true:                                    ; preds = %entry
  %visibleDecimalDigitCount = getelementptr inbounds %"class.icu_75::FixedDecimal", ptr %this1, i32 0, i32 3
  %3 = load i32, ptr %visibleDecimalDigitCount, align 8
  %4 = load ptr, ptr %other.addr, align 8
  %visibleDecimalDigitCount3 = getelementptr inbounds %"class.icu_75::FixedDecimal", ptr %4, i32 0, i32 3
  %5 = load i32, ptr %visibleDecimalDigitCount3, align 8
  %cmp4 = icmp eq i32 %3, %5
  br i1 %cmp4, label %land.lhs.true5, label %land.end

land.lhs.true5:                                   ; preds = %land.lhs.true
  %decimalDigits = getelementptr inbounds %"class.icu_75::FixedDecimal", ptr %this1, i32 0, i32 4
  %6 = load i64, ptr %decimalDigits, align 8
  %7 = load ptr, ptr %other.addr, align 8
  %decimalDigits6 = getelementptr inbounds %"class.icu_75::FixedDecimal", ptr %7, i32 0, i32 4
  %8 = load i64, ptr %decimalDigits6, align 8
  %cmp7 = icmp eq i64 %6, %8
  br i1 %cmp7, label %land.rhs, label %land.end

land.rhs:                                         ; preds = %land.lhs.true5
  %exponent = getelementptr inbounds %"class.icu_75::FixedDecimal", ptr %this1, i32 0, i32 7
  %9 = load i32, ptr %exponent, align 8
  %10 = load ptr, ptr %other.addr, align 8
  %exponent8 = getelementptr inbounds %"class.icu_75::FixedDecimal", ptr %10, i32 0, i32 7
  %11 = load i32, ptr %exponent8, align 8
  %cmp9 = icmp eq i32 %9, %11
  br label %land.end

land.end:                                         ; preds = %land.rhs, %land.lhs.true5, %land.lhs.true, %entry
  %12 = phi i1 [ false, %land.lhs.true5 ], [ false, %land.lhs.true ], [ false, %entry ], [ %cmp9, %land.rhs ]
  ret i1 %12
}