; Function Attrs: mustprogress nofree norecurse nosync nounwind willreturn memory(argmem: read) uwtable
define noundef zeroext i1 @_ZNK6icu_7512FixedDecimaleqERKS0_(ptr nocapture noundef nonnull readonly align 8 dereferenceable(64) %this, ptr nocapture noundef nonnull readonly align 8 dereferenceable(64) %other) local_unnamed_addr #11 align 2 {
entry:
  %source = getelementptr inbounds i8, ptr %this, i64 16
  %0 = load double, ptr %source, align 8
  %source2 = getelementptr inbounds i8, ptr %other, i64 16
  %1 = load double, ptr %source2, align 8
  %cmp = fcmp oeq double %0, %1
  br i1 %cmp, label %land.lhs.true, label %land.end

land.lhs.true:                                    ; preds = %entry
  %visibleDecimalDigitCount = getelementptr inbounds i8, ptr %this, i64 24
  %2 = load i32, ptr %visibleDecimalDigitCount, align 8
  %visibleDecimalDigitCount3 = getelementptr inbounds i8, ptr %other, i64 24
  %3 = load i32, ptr %visibleDecimalDigitCount3, align 8
  %cmp4 = icmp eq i32 %2, %3
  br i1 %cmp4, label %land.lhs.true5, label %land.end

land.lhs.true5:                                   ; preds = %land.lhs.true
  %decimalDigits = getelementptr inbounds i8, ptr %this, i64 32
  %4 = load i64, ptr %decimalDigits, align 8
  %decimalDigits6 = getelementptr inbounds i8, ptr %other, i64 32
  %5 = load i64, ptr %decimalDigits6, align 8
  %cmp7 = icmp eq i64 %4, %5
  br i1 %cmp7, label %land.rhs, label %land.end

land.rhs:                                         ; preds = %land.lhs.true5
  %exponent = getelementptr inbounds i8, ptr %this, i64 56
  %6 = load i32, ptr %exponent, align 8
  %exponent8 = getelementptr inbounds i8, ptr %other, i64 56
  %7 = load i32, ptr %exponent8, align 8
  %cmp9 = icmp eq i32 %6, %7
  br label %land.end

land.end:                                         ; preds = %land.rhs, %land.lhs.true5, %land.lhs.true, %entry
  %8 = phi i1 [ false, %land.lhs.true5 ], [ false, %land.lhs.true ], [ false, %entry ], [ %cmp9, %land.rhs ]
  ret i1 %8
}